(dp0
S'TORSDOF'
p1
I6
sS'autodock_element'
p2
c__builtin__
set
p3
((lp4
S'NA'
p5
aS'C'
p6
aS'HD'
p7
aS'OA'
p8
atp9
Rp10
sS'center'
p11
(lp12
F5.0860000000000003
aF-0.65390000000000004
aF0.061499999999999999
as.