(dp0
S'TORSDOF'
p1
I6
sS'autodock_element'
p2
c__builtin__
set
p3
((lp4
S'A'
p5
aS'NA'
p6
aS'C'
p7
aS'HD'
p8
aS'OA'
p9
atp10
Rp11
sS'center'
p12
(lp13
F5.0536000000000003
aF-0.65949999999999998
aF0.0419
as.